(lp1
(lp2
S'YG+C2'
p3
aS'0'
aS'0'
aS'0'
aS'-(C2)'
p4
aS'0'
aa(lp5
S'0'
aS'YA+Y1'
p6
aS'-(Y1)'
p7
aS'0'
aS'0'
aS'0'
aa(lp8
S'0'
aS'-(Y1)'
p9
aS'Y1+Y3+C1'
p10
aS'-(C1)'
p11
aS'0'
aS'-(Y3)'
p12
aa(lp13
S'0'
aS'0'
aS'-(YA*A+C1)'
p14
aS'YA+YA+C1'
p15
aS'-(Y4)'
p16
aS'0'
aa(lp17
S'-(C2)'
p18
aS'0'
aS'0'
aS'-(Y4)'
p19
aS'Y4+Y5+C2'
p20
aS'0'
aa(lp21
S'0'
aS'0'
aS'0'
aS'0'
aS'-(K2*YA)'
p22
aS'YA+Y3'
p23
aa.