ccopy_reg
_reconstructor
p0
(cgvar._bufferdict
BufferDict
p1
c__builtin__
object
p2
Ntp3
Rp4
(dp5
S'_buf.cov'
p6
cnumpy.core.multiarray
_reconstruct
p7
(cnumpy
ndarray
p8
(I0
tp9
S'b'
p10
tp11
Rp12
(I1
(I2
I2
tp13
cnumpy
dtype
p14
(S'f8'
p15
I0
I1
tp16
Rp17
(I3
S'<'
p18
NNNI-1
I-1
I0
tp19
bI00
S'f\xc4\x1dI\xfc\x1bQ?"\np\xe36\x97@?"\np\xe36\x97@?\x04\xcb(\x88z(q?'
p20
tp21
bsS'_keys'
p22
(lp23
S'a'
p24
ag10
asS'_buf.mean'
p25
g7
(g8
(I0
tp26
g10
tp27
Rp28
(I1
(I2
tp29
g17
I00
S'\xd7ax"\xd6-\xd0?\xed\xc0\xa7\xc5\x84\xb8\xdc?'
p30
tp31
bsS'shape'
p32
NsS'_data.tuple'
p33
(dp34
g24
(I0
Ntp35
sg10
(I1
Ntp36
ssb.