(dp1
S'files'
p2
(dp3
S'configman_value_sources'
p4
(dp5
S'index'
p6
(dp7
S'par'
p8
I0
sS'html_filename'
p9
S'configman_value_sources.html'
p10
sS'name'
p11
S'configman.value_sources'
p12
sS'nums'
p13
ccopy_reg
_reconstructor
p14
(ccoverage.results
Numbers
p15
c__builtin__
object
p16
NtRp17
(dp18
S'n_files'
p19
I1
sS'n_branches'
p20
I0
sS'n_statements'
p21
I69
sS'n_excluded'
p22
I0
sS'n_missing'
p23
I5
sS'n_missing_branches'
p24
I0
sbssS'hash'
p25
S'B!\x8b\x19\xb0\x8b\xdaC\x1d\x00\x93\x93\xa4\xb4a\x92'
p26
ssS'configman_converters'
p27
(dp28
g6
(dp29
S'par'
p30
I0
sS'html_filename'
p31
S'configman_converters.html'
p32
sS'name'
p33
S'configman.converters'
p34
sS'nums'
p35
g14
(g15
g16
NtRp36
(dp37
g19
I1
sg20
I0
sg21
I85
sg22
I0
sg23
I4
sg24
I0
sbssg25
S'5!P\xf4\xa5\xf1\xde^\xdb\x1di\x11\xa2\xc9(\xe2'
p38
ssS'configman_value_sources_for_conf'
p39
(dp40
g6
(dp41
g8
I0
sg9
S'configman_value_sources_for_conf.html'
p42
sg11
S'configman.value_sources.for_conf'
p43
sg13
g14
(g15
g16
NtRp44
(dp45
g19
I1
sg20
I0
sg21
I55
sg22
I0
sg23
I11
sg24
I0
sbssg25
S'\xfa\x9b\xb2!\xd2\x97\xbcOz\xb4\xc5)\x9e\xf4\xb2\x94'
p46
ssS'configman_def_sources_for_mappings'
p47
(dp48
g6
(dp49
S'par'
p50
I0
sS'html_filename'
p51
S'configman_def_sources_for_mappings.html'
p52
sS'name'
p53
S'configman.def_sources.for_mappings'
p54
sS'nums'
p55
g14
(g15
g16
NtRp56
(dp57
g19
I1
sg20
I0
sg21
I30
sg22
I0
sg23
I3
sg24
I0
sbssg25
S'\x80I\xc0\x90]\xaaT=\xc7eLzy\x8a\x9b\x99'
p58
ssS'configman_dotdict'
p59
(dp60
g6
(dp61
S'par'
p62
I0
sS'html_filename'
p63
S'configman_dotdict.html'
p64
sS'name'
p65
S'configman.dotdict'
p66
sS'nums'
p67
g14
(g15
g16
NtRp68
(dp69
g19
I1
sg20
I0
sg21
I4
sg22
I0
sg23
I0
sg24
I0
sbssg25
S'P\xf6\xb6R\x1a\xeb\xc6N\x8dp\xb2\x91Az`\x80'
p70
ssS'configman_value_sources_for_configparse'
p71
(dp72
g6
(dp73
g8
I0
sg9
S'configman_value_sources_for_configparse.html'
p74
sg11
S'configman.value_sources.for_configparse'
p75
sg13
g14
(g15
g16
NtRp76
(dp77
g19
I1
sg20
I0
sg21
I69
sg22
I0
sg23
I19
sg24
I0
sbssg25
S"\x87\xa1\xa6\x04v\x91'\x0b\xd2j\xb4\xd4_\xc1ev"
p78
ssS'configman_value_sources_for_getopt'
p79
(dp80
g6
(dp81
g8
I0
sg9
S'configman_value_sources_for_getopt.html'
p82
sg11
S'configman.value_sources.for_getopt'
p83
sg13
g14
(g15
g16
NtRp84
(dp85
g19
I1
sg20
I0
sg21
I107
sg22
I0
sg23
I9
sg24
I0
sbssg25
S"}\x83\xbd{}%\xa9\xfa\xa1\x13E\x00\xc7\rl'"
p86
ssS'configman_namespace'
p87
(dp88
g6
(dp89
g30
I0
sg31
S'configman_namespace.html'
p90
sg33
S'configman.namespace'
p91
sg35
g14
(g15
g16
NtRp92
(dp93
g19
I1
sg20
I0
sg21
I32
sg22
I0
sg23
I0
sg24
I0
sbssg25
S'\x10\x83v\x166\x1c\x9ex\xf9h\xd0\x13M\xb2i\x8e'
p94
ssS'configman_config_exceptions'
p95
(dp96
g6
(dp97
S'par'
p98
I0
sS'html_filename'
p99
S'configman_config_exceptions.html'
p100
sS'name'
p101
S'configman.config_exceptions'
p102
sS'nums'
p103
g14
(g15
g16
NtRp104
(dp105
g19
I1
sg20
I0
sg21
I12
sg22
I0
sg23
I0
sg24
I0
sbssg25
S'\xe1\xe6UD\xcdc\x96\x0e\xaf\x99\xf1PE\x98\xfd\xf9'
p106
ssS'configman_def_sources_for_json'
p107
(dp108
g6
(dp109
g62
I0
sg63
S'configman_def_sources_for_json.html'
p110
sg65
S'configman.def_sources.for_json'
p111
sg67
g14
(g15
g16
NtRp112
(dp113
g19
I1
sg20
I0
sg21
I9
sg22
I0
sg23
I3
sg24
I0
sbssg25
S'\rU\xd0\xaf\xdc\xe6+l\xb1\xd2\x1f#:J#\x04'
p114
ssS'configman_def_sources'
p115
(dp116
g6
(dp117
g62
I0
sg63
S'configman_def_sources.html'
p118
sg65
S'configman.def_sources'
p119
sg67
g14
(g15
g16
NtRp120
(dp121
g19
I1
sg20
I0
sg21
I19
sg22
I0
sg23
I1
sg24
I0
sbssg25
S'G8H\x89\r\xc7ri\xa9)\x81\xbe\x0eo\xca\xe7'
p122
ssS'configman_def_sources_for_modules'
p123
(dp124
g6
(dp125
g62
I0
sg63
S'configman_def_sources_for_modules.html'
p126
sg65
S'configman.def_sources.for_modules'
p127
sg67
g14
(g15
g16
NtRp128
(dp129
g19
I1
sg20
I0
sg21
I5
sg22
I0
sg23
I3
sg24
I0
sbssg25
S'\x8e\xb6*sG{\xc5\xe9FdB4\xf7\x12\xd6\xec'
p130
ssS'configman_value_sources_for_mapping'
p131
(dp132
g6
(dp133
S'par'
p134
I0
sS'html_filename'
p135
S'configman_value_sources_for_mapping.html'
p136
sS'name'
p137
S'configman.value_sources.for_mapping'
p138
sS'nums'
p139
g14
(g15
g16
NtRp140
(dp141
g19
I1
sg20
I0
sg21
I14
sg22
I0
sg23
I1
sg24
I0
sbssg25
S' \xdc\xd5\xc7\xb3\xaa\x07\xfb\xe3\xd404\x7fE\x98\x9c'
p142
ssS'configman_config_file_future_proxy'
p143
(dp144
g6
(dp145
g62
I0
sg63
S'configman_config_file_future_proxy.html'
p146
sg65
S'configman.config_file_future_proxy'
p147
sg67
g14
(g15
g16
NtRp148
(dp149
g19
I1
sg20
I0
sg21
I2
sg22
I0
sg23
I0
sg24
I0
sbssg25
S'U\xe21\xc0b\xc3\xd3/<\x98\x0e\xe4\x92\xf1\xe3\xe5'
p150
ssS'configman_option'
p151
(dp152
g6
(dp153
S'par'
p154
I0
sS'html_filename'
p155
S'configman_option.html'
p156
sS'name'
p157
S'configman.option'
p158
sS'nums'
p159
g14
(g15
g16
NtRp160
(dp161
g19
I1
sg20
I0
sg21
I48
sg22
I5
sg23
I0
sg24
I0
sbssg25
S'\x96\xc9\xcc pf(\xe6>\xa8\xfd*\x1b\xcd\xf1d'
p162
ssS'configman_config_manager'
p163
(dp164
g6
(dp165
S'par'
p166
I0
sS'html_filename'
p167
S'configman_config_manager.html'
p168
sS'name'
p169
S'configman.config_manager'
p170
sS'nums'
p171
g14
(g15
g16
NtRp172
(dp173
g19
I1
sg20
I0
sg21
I332
sg22
I0
sg23
I10
sg24
I0
sbssg25
S'\xb5\xaf\xda\x18-WqD)f\xb6UL\xa1\xa8\xd8'
p174
ssS'configman_value_sources_for_json'
p175
(dp176
g6
(dp177
g8
I0
sg9
S'configman_value_sources_for_json.html'
p178
sg11
S'configman.value_sources.for_json'
p179
sg13
g14
(g15
g16
NtRp180
(dp181
g19
I1
sg20
I0
sg21
I56
sg22
I0
sg23
I12
sg24
I0
sbssg25
S'l|\xc6A\x08\xfe\xdc\x82\xa6\xfa\x0b\xe7?\x93G\xbb'
p182
ssS'configman'
p183
(dp184
g6
(dp185
g98
I0
sg99
S'configman.html'
p186
sg101
S'configman'
p187
sg103
g14
(g15
g16
NtRp188
(dp189
g19
I1
sg20
I0
sg21
I6
sg22
I0
sg23
I0
sg24
I0
sbssg25
S'E\xc1\xd5\xd8\xeb0%J\x92l\x85v\xbc7\xb6\x89'
p190
ssS'configman_datetime_util'
p191
(dp192
g6
(dp193
g62
I0
sg63
S'configman_datetime_util.html'
p194
sg65
S'configman.datetime_util'
p195
sg67
g14
(g15
g16
NtRp196
(dp197
g19
I1
sg20
I0
sg21
I38
sg22
I0
sg23
I0
sg24
I0
sbssg25
S'O\xf1QK\xb7\x8cW\x98\x12\x14\xca\x05\xd3\x02\x9d@'
p198
ssS'configman_value_sources_source_exceptions'
p199
(dp200
g6
(dp201
g62
I0
sg63
S'configman_value_sources_source_exceptions.html'
p202
sg65
S'configman.value_sources.source_exceptions'
p203
sg67
g14
(g15
g16
NtRp204
(dp205
g19
I1
sg20
I0
sg21
I19
sg22
I0
sg23
I0
sg24
I0
sbssg25
S'%G\x1d\xbc\x8fJU,\xc8_\xad+%\xaa\xf4R'
p206
sssS'version'
p207
S'3.5.1b1'
p208
sS'settings'
p209
S"\x1e\xe4k\xc4\xf7\x0b\xd1\xf1oH\x02'D|\x0eK"
p210
sS'format'
p211
I1
s.