(lp1
(lp2
V1.0/RG+C1+1.0/R2
p3
aV-C1
p4
aV-1.0/R2
p5
aV0
aa(lp6
V-C1
p7
aV2.0*C1+1.0/R1
p8
aV0
aV-C1
p9
aa(lp10
V-1.0/R2
p11
aV0
aV2.0/R2+C2
p12
aV-1.0/R2
p13
aa(lp14
V0
aV-C1
p15
aV-1.0/R2
p16
aV1.0/R2+1.0/RL+C1
p17
aa.